target datalayout = "e-m:e-p270:32:32-p271:32:32-p272:64:64-i64:64-i128:128-f80:128-n8:16:32:64-S128"
target triple = "x86_64-pc-linux-gnu"

%struct.ZSTD_inBuffer_s = type { ptr, i64, i64 }
%struct.ZSTD_outBuffer_s = type { ptr, i64, i64 }

; Function Attrs: nounwind uwtable
define i64 @ZSTD_compressStream2_simpleArgs(ptr noundef %0, ptr noundef %1, i64 noundef %2, ptr noundef %3, ptr noundef %4, i64 noundef %5, ptr noundef %6, i32 noundef %7) #0 {
  %9 = alloca ptr, align 8
  %10 = alloca ptr, align 8
  %11 = alloca i64, align 8
  %12 = alloca ptr, align 8
  %13 = alloca ptr, align 8
  %14 = alloca i64, align 8
  %15 = alloca ptr, align 8
  %16 = alloca i32, align 4
  %17 = alloca %struct.ZSTD_outBuffer_s, align 8
  %18 = alloca %struct.ZSTD_inBuffer_s, align 8
  %19 = alloca i64, align 8
  store ptr %0, ptr %9, align 8, !tbaa !11
  store ptr %1, ptr %10, align 8, !tbaa !15
  store i64 %2, ptr %11, align 8, !tbaa !3
  store ptr %3, ptr %12, align 8, !tbaa !313
  store ptr %4, ptr %13, align 8, !tbaa !15
  store i64 %5, ptr %14, align 8, !tbaa !3
  store ptr %6, ptr %15, align 8, !tbaa !313
  store i32 %7, ptr %16, align 4, !tbaa !53
  call void @llvm.lifetime.start.p0(i64 24, ptr %17) #15
  call void @llvm.lifetime.start.p0(i64 24, ptr %18) #15
  %20 = load ptr, ptr %10, align 8, !tbaa !15
  %21 = getelementptr inbounds nuw %struct.ZSTD_outBuffer_s, ptr %17, i32 0, i32 0
  store ptr %20, ptr %21, align 8, !tbaa !310
  %22 = load i64, ptr %11, align 8, !tbaa !3
  %23 = getelementptr inbounds nuw %struct.ZSTD_outBuffer_s, ptr %17, i32 0, i32 1
  store i64 %22, ptr %23, align 8, !tbaa !289
  %24 = load ptr, ptr %12, align 8, !tbaa !313
  %25 = load i64, ptr %24, align 8, !tbaa !3
  %26 = getelementptr inbounds nuw %struct.ZSTD_outBuffer_s, ptr %17, i32 0, i32 2
  store i64 %25, ptr %26, align 8, !tbaa !287
  %27 = load ptr, ptr %13, align 8, !tbaa !15
  %28 = getelementptr inbounds nuw %struct.ZSTD_inBuffer_s, ptr %18, i32 0, i32 0
  store ptr %27, ptr %28, align 8, !tbaa !293
  %29 = load i64, ptr %14, align 8, !tbaa !3
  %30 = getelementptr inbounds nuw %struct.ZSTD_inBuffer_s, ptr %18, i32 0, i32 1
  store i64 %29, ptr %30, align 8, !tbaa !291
  %31 = load ptr, ptr %15, align 8, !tbaa !313
  %32 = load i64, ptr %31, align 8, !tbaa !3
  %33 = getelementptr inbounds nuw %struct.ZSTD_inBuffer_s, ptr %18, i32 0, i32 2
  store i64 %32, ptr %33, align 8, !tbaa !290
  call void @llvm.lifetime.start.p0(i64 8, ptr %19) #15
  %34 = load ptr, ptr %9, align 8, !tbaa !11
  %35 = load i32, ptr %16, align 4, !tbaa !53
  %36 = call i64 @ZSTD_compressStream2(ptr noundef %34, ptr noundef %17, ptr noundef %18, i32 noundef %35)
  store i64 %36, ptr %19, align 8, !tbaa !3
  %37 = getelementptr inbounds nuw %struct.ZSTD_outBuffer_s, ptr %17, i32 0, i32 2
  %38 = load i64, ptr %37, align 8, !tbaa !287
  %39 = load ptr, ptr %12, align 8, !tbaa !313
  store i64 %38, ptr %39, align 8, !tbaa !3
  %40 = getelementptr inbounds nuw %struct.ZSTD_inBuffer_s, ptr %18, i32 0, i32 2
  %41 = load i64, ptr %40, align 8, !tbaa !290
  %42 = load ptr, ptr %15, align 8, !tbaa !313
  store i64 %41, ptr %42, align 8, !tbaa !3
  %43 = load i64, ptr %19, align 8, !tbaa !3
  call void @llvm.lifetime.end.p0(i64 8, ptr %19) #15
  call void @llvm.lifetime.end.p0(i64 24, ptr %18) #15
  call void @llvm.lifetime.end.p0(i64 24, ptr %17) #15
  ret i64 %43
}