; Function Attrs: nounwind uwtable
define i64 @ZSTD_compressStream2_simpleArgs(ptr noundef %0, ptr noundef %1, i64 noundef %2, ptr noundef captures(none) %3, ptr noundef %4, i64 noundef %5, ptr noundef captures(none) %6, i32 noundef %7) local_unnamed_addr #2 {
  %9 = alloca %struct.ZSTD_outBuffer_s, align 8
  %10 = alloca %struct.ZSTD_inBuffer_s, align 8
  call void @llvm.lifetime.start.p0(i64 24, ptr nonnull %9) #28
  call void @llvm.lifetime.start.p0(i64 24, ptr nonnull %10) #28
  store ptr %1, ptr %9, align 8, !tbaa !202
  %11 = getelementptr inbounds nuw i8, ptr %9, i64 8
  store i64 %2, ptr %11, align 8, !tbaa !204
  %12 = load i64, ptr %3, align 8, !tbaa !117
  %13 = getelementptr inbounds nuw i8, ptr %9, i64 16
  store i64 %12, ptr %13, align 8, !tbaa !205
  store ptr %4, ptr %10, align 8, !tbaa !206
  %14 = getelementptr inbounds nuw i8, ptr %10, i64 8
  store i64 %5, ptr %14, align 8, !tbaa !207
  %15 = load i64, ptr %6, align 8, !tbaa !117
  %16 = getelementptr inbounds nuw i8, ptr %10, i64 16
  store i64 %15, ptr %16, align 8, !tbaa !208
  %17 = call i64 @ZSTD_compressStream2(ptr noundef %0, ptr noundef nonnull %9, ptr noundef nonnull %10, i32 noundef %7)
  %18 = load i64, ptr %13, align 8, !tbaa !205
  store i64 %18, ptr %3, align 8, !tbaa !117
  %19 = load i64, ptr %16, align 8, !tbaa !208
  store i64 %19, ptr %6, align 8, !tbaa !117
  call void @llvm.lifetime.end.p0(i64 24, ptr nonnull %10) #28
  call void @llvm.lifetime.end.p0(i64 24, ptr nonnull %9) #28
  ret i64 %17
}